target datalayout = "e-m:e-p270:32:32-p271:32:32-p272:64:64-i64:64-i128:128-f80:128-n8:16:32:64-S128"
target triple = "x86_64-pc-linux-gnu"

%struct.AVFilterContext = type { ptr, ptr, ptr, ptr, ptr, i32, ptr, ptr, i32, ptr, ptr, i32, i32, ptr, ptr, ptr, ptr, i32, ptr, i32, i32 }
%struct.W3FDIFContext = type { ptr, i32, i32, i32, i32, [4 x i32], [4 x i32], i32, i32, i32, ptr, ptr, ptr, ptr, i32, i32, %struct.W3FDIFDSPContext }
%struct.W3FDIFDSPContext = type { ptr, ptr, ptr, ptr, ptr }

; Function Attrs: cold nounwind optsize uwtable
define internal void @uninit(ptr noundef %0) #0 {
  %2 = alloca ptr, align 8
  %3 = alloca ptr, align 8
  %4 = alloca i32, align 4
  store ptr %0, ptr %2, align 8, !tbaa !4
  call void @llvm.lifetime.start.p0(i64 8, ptr %3) #10
  %5 = load ptr, ptr %2, align 8, !tbaa !4
  %6 = getelementptr inbounds nuw %struct.AVFilterContext, ptr %5, i32 0, i32 9
  %7 = load ptr, ptr %6, align 8, !tbaa !9
  store ptr %7, ptr %3, align 8, !tbaa !22
  call void @llvm.lifetime.start.p0(i64 4, ptr %4) #10
  %8 = load ptr, ptr %3, align 8, !tbaa !22
  %9 = getelementptr inbounds nuw %struct.W3FDIFContext, ptr %8, i32 0, i32 10
  call void @av_frame_free(ptr noundef %9)
  %10 = load ptr, ptr %3, align 8, !tbaa !22
  %11 = getelementptr inbounds nuw %struct.W3FDIFContext, ptr %10, i32 0, i32 11
  call void @av_frame_free(ptr noundef %11)
  %12 = load ptr, ptr %3, align 8, !tbaa !22
  %13 = getelementptr inbounds nuw %struct.W3FDIFContext, ptr %12, i32 0, i32 12
  call void @av_frame_free(ptr noundef %13)
  store i32 0, ptr %4, align 4, !tbaa !24
  br label %14

14:                                               ; preds = %27, %1
  %15 = load i32, ptr %4, align 4, !tbaa !24
  %16 = load ptr, ptr %3, align 8, !tbaa !22
  %17 = getelementptr inbounds nuw %struct.W3FDIFContext, ptr %16, i32 0, i32 14
  %18 = load i32, ptr %17, align 8, !tbaa !25
  %19 = icmp slt i32 %15, %18
  br i1 %19, label %20, label %30

20:                                               ; preds = %14
  %21 = load ptr, ptr %3, align 8, !tbaa !22
  %22 = getelementptr inbounds nuw %struct.W3FDIFContext, ptr %21, i32 0, i32 13
  %23 = load ptr, ptr %22, align 8, !tbaa !30
  %24 = load i32, ptr %4, align 4, !tbaa !24
  %25 = sext i32 %24 to i64
  %26 = getelementptr inbounds ptr, ptr %23, i64 %25
  call void @av_freep(ptr noundef %26)
  br label %27

27:                                               ; preds = %20
  %28 = load i32, ptr %4, align 4, !tbaa !24
  %29 = add nsw i32 %28, 1
  store i32 %29, ptr %4, align 4, !tbaa !24
  br label %14, !llvm.loop !31

30:                                               ; preds = %14
  %31 = load ptr, ptr %3, align 8, !tbaa !22
  %32 = getelementptr inbounds nuw %struct.W3FDIFContext, ptr %31, i32 0, i32 13
  call void @av_freep(ptr noundef %32)
  call void @llvm.lifetime.end.p0(i64 4, ptr %4) #10
  call void @llvm.lifetime.end.p0(i64 8, ptr %3) #10
  ret void
}